; Function Attrs: mustprogress nofree norecurse nosync nounwind willreturn memory(none) uwtable
define noundef signext range(i8 0, 2) i8 @_ZN6icu_7712PatternProps20isSyntaxOrWhiteSpaceEi(i32 noundef %0) local_unnamed_addr #0 align 2 {
  %2 = icmp slt i32 %0, 0
  br i1 %2, label %33, label %3

3:                                                ; preds = %1
  %4 = icmp samesign ult i32 %0, 256
  br i1 %4, label %5, label %10

5:                                                ; preds = %3
  %6 = zext nneg i32 %0 to i64
  %7 = getelementptr inbounds nuw [256 x i8], ptr @_ZN6icu_77L6latin1E, i64 0, i64 %6
  %8 = load i8, ptr %7, align 1, !tbaa !3
  %9 = and i8 %8, 1
  br label %33

10:                                               ; preds = %3
  %11 = icmp samesign ult i32 %0, 8206
  br i1 %11, label %33, label %12

12:                                               ; preds = %10
  %13 = icmp samesign ult i32 %0, 12337
  br i1 %13, label %14, label %27

14:                                               ; preds = %12
  %15 = add nsw i32 %0, -8192
  %16 = lshr i32 %15, 5
  %17 = zext nneg i32 %16 to i64
  %18 = getelementptr inbounds nuw [130 x i8], ptr @_ZN6icu_77L9index2000E, i64 0, i64 %17
  %19 = load i8, ptr %18, align 1, !tbaa !3
  %20 = zext i8 %19 to i64
  %21 = getelementptr inbounds nuw [10 x i32], ptr @_ZN6icu_77L22syntaxOrWhiteSpace2000E, i64 0, i64 %20
  %22 = load i32, ptr %21, align 4, !tbaa !6
  %23 = and i32 %0, 31
  %24 = lshr i32 %22, %23
  %25 = trunc i32 %24 to i8
  %26 = and i8 %25, 1
  br label %33

27:                                               ; preds = %12
  %28 = add nsw i32 %0, -64830
  %or.cond = icmp ult i32 %28, 265
  br i1 %or.cond, label %29, label %33

29:                                               ; preds = %27
  %30 = add nsw i32 %0, -65093
  %31 = icmp ult i32 %30, -261
  %32 = zext i1 %31 to i8
  br label %33

33:                                               ; preds = %27, %10, %1, %29, %14, %5
  %.0 = phi i8 [ %9, %5 ], [ %26, %14 ], [ %32, %29 ], [ 0, %1 ], [ 0, %10 ], [ 0, %27 ]
  ret i8 %.0
}